target datalayout = "e-m:e-p270:32:32-p271:32:32-p272:64:64-i64:64-i128:128-f80:128-n8:16:32:64-S128"
target triple = "x86_64-pc-linux-gnu"

%struct._zend_refcounted_h = type { i32, %union.anon }
%union.anon = type { i32 }
%struct._zval_struct = type { %union._zend_value, %union.anon.3, %union.anon.6 }
%union._zend_value = type { i64 }
%union.anon.3 = type { i32 }
%union.anon.6 = type { i32 }
%struct._php_hash_ops = type { ptr, ptr, ptr, ptr, ptr, ptr, ptr, ptr, i64, i64, i64, i8 }
%struct._php_hashcontext_object = type { ptr, ptr, i64, ptr, %struct._zend_object }
%struct._zend_object = type { %struct._zend_refcounted_h, i32, i32, ptr, ptr, ptr, [1 x %struct._zval_struct] }

; Function Attrs: nounwind uwtable
define dso_local i32 @php_hash_serialize(ptr noundef %0, ptr noundef %1, ptr noundef %2) #0 {
  %4 = alloca i32, align 4
  %5 = alloca ptr, align 8
  %6 = alloca ptr, align 8
  %7 = alloca ptr, align 8
  store ptr %0, ptr %5, align 8, !tbaa !24
  store ptr %1, ptr %6, align 8, !tbaa !39
  store ptr %2, ptr %7, align 8, !tbaa !13
  %8 = load ptr, ptr %5, align 8, !tbaa !24
  %9 = getelementptr inbounds nuw %struct._php_hashcontext_object, ptr %8, i32 0, i32 0
  %10 = load ptr, ptr %9, align 8, !tbaa !32
  %11 = getelementptr inbounds nuw %struct._php_hash_ops, ptr %10, i32 0, i32 7
  %12 = load ptr, ptr %11, align 8, !tbaa !50
  %13 = icmp ne ptr %12, null
  br i1 %13, label %14, label %24

14:                                               ; preds = %3
  %15 = load ptr, ptr %6, align 8, !tbaa !39
  store i64 2, ptr %15, align 8, !tbaa !18
  %16 = load ptr, ptr %5, align 8, !tbaa !24
  %17 = load ptr, ptr %7, align 8, !tbaa !13
  %18 = load ptr, ptr %5, align 8, !tbaa !24
  %19 = getelementptr inbounds nuw %struct._php_hashcontext_object, ptr %18, i32 0, i32 0
  %20 = load ptr, ptr %19, align 8, !tbaa !32
  %21 = getelementptr inbounds nuw %struct._php_hash_ops, ptr %20, i32 0, i32 7
  %22 = load ptr, ptr %21, align 8, !tbaa !50
  %23 = call i32 @php_hash_serialize_spec(ptr noundef %16, ptr noundef %17, ptr noundef %22)
  store i32 %23, ptr %4, align 4
  br label %25

24:                                               ; preds = %3
  store i32 -1, ptr %4, align 4
  br label %25

25:                                               ; preds = %24, %14
  %26 = load i32, ptr %4, align 4
  ret i32 %26
}