; Function Attrs: nounwind uwtable
define dso_local range(i32 -1, 1) i32 @php_hash_serialize(ptr noundef readonly captures(none) %0, ptr noundef writeonly captures(none) %1, ptr noundef captures(none) %2) local_unnamed_addr #0 {
  %4 = load ptr, ptr %0, align 8, !tbaa !26
  %5 = getelementptr inbounds nuw i8, ptr %4, i64 56
  %6 = load ptr, ptr %5, align 8, !tbaa !35
  %.not = icmp eq ptr %6, null
  br i1 %.not, label %9, label %7

7:                                                ; preds = %3
  store i64 2, ptr %1, align 8, !tbaa !18
  %8 = tail call i32 @php_hash_serialize_spec(ptr noundef nonnull %0, ptr noundef %2, ptr noundef nonnull %6)
  br label %9

9:                                                ; preds = %3, %7
  %.0 = phi i32 [ %8, %7 ], [ -1, %3 ]
  ret i32 %.0
}